target datalayout = "e-m:e-p270:32:32-p271:32:32-p272:64:64-i64:64-i128:128-f80:128-n8:16:32:64-S128"
target triple = "x86_64-pc-linux-gnu"

%struct.UNSP = type { ptr, ptr, i32, i32, i32, i32, ptr }

; Function Attrs: nounwind uwtable
define i32 @get_byte(ptr noundef %0) #0 {
  %2 = alloca i32, align 4
  %3 = alloca ptr, align 8
  %4 = alloca i32, align 4
  store ptr %0, ptr %3, align 8
  %5 = load ptr, ptr %3, align 8
  %6 = getelementptr inbounds %struct.UNSP, ptr %5, i32 0, i32 0
  %7 = load ptr, ptr %6, align 8
  %8 = load ptr, ptr %3, align 8
  %9 = getelementptr inbounds %struct.UNSP, ptr %8, i32 0, i32 1
  %10 = load ptr, ptr %9, align 8
  %11 = icmp uge ptr %7, %10
  br i1 %11, label %12, label %15

12:                                               ; preds = %1
  %13 = load ptr, ptr %3, align 8
  %14 = getelementptr inbounds %struct.UNSP, ptr %13, i32 0, i32 4
  store i32 1, ptr %14, align 8
  store i32 255, ptr %2, align 4
  br label %27

15:                                               ; preds = %1
  %16 = load ptr, ptr %3, align 8
  %17 = getelementptr inbounds %struct.UNSP, ptr %16, i32 0, i32 0
  %18 = load ptr, ptr %17, align 8
  %19 = load i8, ptr %18, align 1
  %20 = sext i8 %19 to i32
  store i32 %20, ptr %4, align 4
  %21 = load ptr, ptr %3, align 8
  %22 = getelementptr inbounds %struct.UNSP, ptr %21, i32 0, i32 0
  %23 = load ptr, ptr %22, align 8
  %24 = getelementptr inbounds i8, ptr %23, i32 1
  store ptr %24, ptr %22, align 8
  %25 = load i32, ptr %4, align 4
  %26 = and i32 %25, 255
  store i32 %26, ptr %2, align 4
  br label %27

27:                                               ; preds = %15, %12
  %28 = load i32, ptr %2, align 4
  ret i32 %28
}

; Function Attrs: nounwind uwtable
define i32 @getbit_from_table(ptr noundef %0, ptr noundef %1) #0 {
  %3 = alloca i32, align 4
  %4 = alloca ptr, align 8
  %5 = alloca ptr, align 8
  %6 = alloca i32, align 4
  %7 = alloca i32, align 4
  store ptr %0, ptr %4, align 8
  store ptr %1, ptr %5, align 8
  %8 = load ptr, ptr %5, align 8
  %9 = getelementptr inbounds %struct.UNSP, ptr %8, i32 0, i32 5
  %10 = load i32, ptr %9, align 4
  %11 = zext i32 %10 to i64
  %12 = icmp ugt i64 %11, 0
  br i1 %12, label %13, label %63

13:                                               ; preds = %2
  %14 = load ptr, ptr %5, align 8
  %15 = getelementptr inbounds %struct.UNSP, ptr %14, i32 0, i32 5
  %16 = load i32, ptr %15, align 4
  %17 = zext i32 %16 to i64
  %18 = icmp ule i64 2, %17
  br i1 %18, label %19, label %63

19:                                               ; preds = %13
  %20 = load ptr, ptr %4, align 8
  %21 = ptrtoint ptr %20 to i64
  %22 = load ptr, ptr %5, align 8
  %23 = getelementptr inbounds %struct.UNSP, ptr %22, i32 0, i32 6
  %24 = load ptr, ptr %23, align 8
  %25 = ptrtoint ptr %24 to i64
  %26 = icmp uge i64 %21, %25
  br i1 %26, label %27, label %63

27:                                               ; preds = %19
  %28 = load ptr, ptr %4, align 8
  %29 = ptrtoint ptr %28 to i64
  %30 = add i64 %29, 2
  %31 = load ptr, ptr %5, align 8
  %32 = getelementptr inbounds %struct.UNSP, ptr %31, i32 0, i32 6
  %33 = load ptr, ptr %32, align 8
  %34 = ptrtoint ptr %33 to i64
  %35 = load ptr, ptr %5, align 8
  %36 = getelementptr inbounds %struct.UNSP, ptr %35, i32 0, i32 5
  %37 = load i32, ptr %36, align 4
  %38 = zext i32 %37 to i64
  %39 = add i64 %34, %38
  %40 = icmp ule i64 %30, %39
  br i1 %40, label %41, label %63

41:                                               ; preds = %27
  %42 = load ptr, ptr %4, align 8
  %43 = ptrtoint ptr %42 to i64
  %44 = add i64 %43, 2
  %45 = load ptr, ptr %5, align 8
  %46 = getelementptr inbounds %struct.UNSP, ptr %45, i32 0, i32 6
  %47 = load ptr, ptr %46, align 8
  %48 = ptrtoint ptr %47 to i64
  %49 = icmp ugt i64 %44, %48
  br i1 %49, label %50, label %63

50:                                               ; preds = %41
  %51 = load ptr, ptr %4, align 8
  %52 = ptrtoint ptr %51 to i64
  %53 = load ptr, ptr %5, align 8
  %54 = getelementptr inbounds %struct.UNSP, ptr %53, i32 0, i32 6
  %55 = load ptr, ptr %54, align 8
  %56 = ptrtoint ptr %55 to i64
  %57 = load ptr, ptr %5, align 8
  %58 = getelementptr inbounds %struct.UNSP, ptr %57, i32 0, i32 5
  %59 = load i32, ptr %58, align 4
  %60 = zext i32 %59 to i64
  %61 = add i64 %56, %60
  %62 = icmp ult i64 %52, %61
  br i1 %62, label %66, label %63

63:                                               ; preds = %50, %41, %27, %19, %13, %2
  %64 = load ptr, ptr %5, align 8
  %65 = getelementptr inbounds %struct.UNSP, ptr %64, i32 0, i32 4
  store i32 1, ptr %65, align 8
  store i32 255, ptr %3, align 4
  br label %156

66:                                               ; preds = %50
  %67 = load ptr, ptr %4, align 8
  %68 = load i16, ptr %67, align 2
  %69 = zext i16 %68 to i32
  %70 = load ptr, ptr %5, align 8
  %71 = getelementptr inbounds %struct.UNSP, ptr %70, i32 0, i32 2
  %72 = load i32, ptr %71, align 8
  %73 = lshr i32 %72, 11
  %74 = mul i32 %69, %73
  store i32 %74, ptr %6, align 4
  %75 = load ptr, ptr %5, align 8
  %76 = getelementptr inbounds %struct.UNSP, ptr %75, i32 0, i32 3
  %77 = load i32, ptr %76, align 4
  %78 = load i32, ptr %6, align 4
  %79 = icmp ult i32 %77, %78
  br i1 %79, label %80, label %116

80:                                               ; preds = %66
  %81 = load i32, ptr %6, align 4
  %82 = load ptr, ptr %5, align 8
  %83 = getelementptr inbounds %struct.UNSP, ptr %82, i32 0, i32 2
  store i32 %81, ptr %83, align 8
  %84 = load ptr, ptr %4, align 8
  %85 = load i16, ptr %84, align 2
  %86 = zext i16 %85 to i32
  store i32 %86, ptr %6, align 4
  %87 = load i32, ptr %6, align 4
  %88 = sub i32 2048, %87
  store i32 %88, ptr %7, align 4
  %89 = load i32, ptr %7, align 4
  %90 = ashr i32 %89, 5
  store i32 %90, ptr %7, align 4
  %91 = load i32, ptr %6, align 4
  %92 = load i32, ptr %7, align 4
  %93 = add i32 %92, %91
  store i32 %93, ptr %7, align 4
  %94 = load i32, ptr %7, align 4
  %95 = trunc i32 %94 to i16
  %96 = load ptr, ptr %4, align 8
  store i16 %95, ptr %96, align 2
  %97 = load ptr, ptr %5, align 8
  %98 = getelementptr inbounds %struct.UNSP, ptr %97, i32 0, i32 2
  %99 = load i32, ptr %98, align 8
  %100 = icmp ult i32 %99, 16777216
  br i1 %100, label %101, label %115

101:                                              ; preds = %80
  %102 = load ptr, ptr %5, align 8
  %103 = getelementptr inbounds %struct.UNSP, ptr %102, i32 0, i32 3
  %104 = load i32, ptr %103, align 4
  %105 = shl i32 %104, 8
  %106 = load ptr, ptr %5, align 8
  %107 = call i32 @get_byte(ptr noundef %106)
  %108 = or i32 %105, %107
  %109 = load ptr, ptr %5, align 8
  %110 = getelementptr inbounds %struct.UNSP, ptr %109, i32 0, i32 3
  store i32 %108, ptr %110, align 4
  %111 = load ptr, ptr %5, align 8
  %112 = getelementptr inbounds %struct.UNSP, ptr %111, i32 0, i32 2
  %113 = load i32, ptr %112, align 8
  %114 = shl i32 %113, 8
  store i32 %114, ptr %112, align 8
  br label %115

115:                                              ; preds = %101, %80
  store i32 0, ptr %3, align 4
  br label %156

116:                                              ; preds = %66
  %117 = load i32, ptr %6, align 4
  %118 = load ptr, ptr %5, align 8
  %119 = getelementptr inbounds %struct.UNSP, ptr %118, i32 0, i32 2
  %120 = load i32, ptr %119, align 8
  %121 = sub i32 %120, %117
  store i32 %121, ptr %119, align 8
  %122 = load i32, ptr %6, align 4
  %123 = load ptr, ptr %5, align 8
  %124 = getelementptr inbounds %struct.UNSP, ptr %123, i32 0, i32 3
  %125 = load i32, ptr %124, align 4
  %126 = sub i32 %125, %122
  store i32 %126, ptr %124, align 4
  %127 = load ptr, ptr %4, align 8
  %128 = load i16, ptr %127, align 2
  %129 = zext i16 %128 to i32
  store i32 %129, ptr %6, align 4
  %130 = load i32, ptr %6, align 4
  %131 = lshr i32 %130, 5
  %132 = load i32, ptr %6, align 4
  %133 = sub i32 %132, %131
  store i32 %133, ptr %6, align 4
  %134 = load i32, ptr %6, align 4
  %135 = trunc i32 %134 to i16
  %136 = load ptr, ptr %4, align 8
  store i16 %135, ptr %136, align 2
  %137 = load ptr, ptr %5, align 8
  %138 = getelementptr inbounds %struct.UNSP, ptr %137, i32 0, i32 2
  %139 = load i32, ptr %138, align 8
  %140 = icmp ult i32 %139, 16777216
  br i1 %140, label %141, label %155

141:                                              ; preds = %116
  %142 = load ptr, ptr %5, align 8
  %143 = getelementptr inbounds %struct.UNSP, ptr %142, i32 0, i32 3
  %144 = load i32, ptr %143, align 4
  %145 = shl i32 %144, 8
  %146 = load ptr, ptr %5, align 8
  %147 = call i32 @get_byte(ptr noundef %146)
  %148 = or i32 %145, %147
  %149 = load ptr, ptr %5, align 8
  %150 = getelementptr inbounds %struct.UNSP, ptr %149, i32 0, i32 3
  store i32 %148, ptr %150, align 4
  %151 = load ptr, ptr %5, align 8
  %152 = getelementptr inbounds %struct.UNSP, ptr %151, i32 0, i32 2
  %153 = load i32, ptr %152, align 8
  %154 = shl i32 %153, 8
  store i32 %154, ptr %152, align 8
  br label %155

155:                                              ; preds = %141, %116
  store i32 1, ptr %3, align 4
  br label %156

156:                                              ; preds = %155, %115, %63
  %157 = load i32, ptr %3, align 4
  ret i32 %157
}