; Function Attrs: mustprogress nofree norecurse nosync nounwind willreturn memory(read, argmem: readwrite, inaccessiblemem: none) uwtable
define noundef i32 @getbit_from_table(ptr noundef %0, ptr nocapture noundef %1) local_unnamed_addr #3 {
  %3 = getelementptr inbounds i8, ptr %1, i64 28
  %4 = load i32, ptr %3, align 4
  %5 = zext i32 %4 to i64
  %switch = icmp ult i32 %4, 2
  br i1 %switch, label %16, label %6

6:                                                ; preds = %2
  %7 = getelementptr inbounds i8, ptr %1, i64 32
  %8 = load ptr, ptr %7, align 8
  %.not52 = icmp ugt ptr %8, %0
  br i1 %.not52, label %16, label %9

9:                                                ; preds = %6
  %10 = ptrtoint ptr %8 to i64
  %11 = ptrtoint ptr %0 to i64
  %12 = add i64 %11, 2
  %13 = add i64 %10, %5
  %.not53 = icmp ule i64 %12, %13
  %14 = icmp ugt i64 %12, %10
  %or.cond = and i1 %14, %.not53
  %15 = icmp ugt i64 %13, %11
  %or.cond54 = and i1 %15, %or.cond
  br i1 %or.cond54, label %18, label %16

16:                                               ; preds = %2, %9, %6
  %17 = getelementptr inbounds i8, ptr %1, i64 24
  store i32 1, ptr %17, align 8
  br label %73

18:                                               ; preds = %9
  %19 = load i16, ptr %0, align 2
  %20 = zext i16 %19 to i32
  %21 = getelementptr inbounds i8, ptr %1, i64 16
  %22 = load i32, ptr %21, align 8
  %23 = lshr i32 %22, 11
  %24 = mul i32 %23, %20
  %25 = getelementptr inbounds i8, ptr %1, i64 20
  %26 = load i32, ptr %25, align 4
  %27 = icmp ult i32 %26, %24
  br i1 %27, label %28, label %51

28:                                               ; preds = %18
  store i32 %24, ptr %21, align 8
  %29 = load i16, ptr %0, align 2
  %30 = zext i16 %29 to i32
  %31 = sub nsw i32 2048, %30
  %32 = ashr i32 %31, 5
  %33 = trunc nsw i32 %32 to i16
  %34 = add i16 %29, %33
  store i16 %34, ptr %0, align 2
  %35 = load i32, ptr %21, align 8
  %36 = icmp ult i32 %35, 16777216
  br i1 %36, label %37, label %73

37:                                               ; preds = %28
  %38 = load i32, ptr %25, align 4
  %39 = shl i32 %38, 8
  %40 = load ptr, ptr %1, align 8
  %41 = getelementptr inbounds i8, ptr %1, i64 8
  %42 = load ptr, ptr %41, align 8
  %.not.i = icmp ult ptr %40, %42
  br i1 %.not.i, label %45, label %43

43:                                               ; preds = %37
  %44 = getelementptr inbounds i8, ptr %1, i64 24
  store i32 1, ptr %44, align 8
  br label %get_byte.exit

45:                                               ; preds = %37
  %46 = load i8, ptr %40, align 1
  %47 = zext i8 %46 to i32
  %48 = getelementptr inbounds i8, ptr %40, i64 1
  store ptr %48, ptr %1, align 8
  br label %get_byte.exit

get_byte.exit:                                    ; preds = %43, %45
  %.0.i = phi i32 [ 255, %43 ], [ %47, %45 ]
  %49 = or disjoint i32 %.0.i, %39
  store i32 %49, ptr %25, align 4
  %50 = shl nuw i32 %35, 8
  store i32 %50, ptr %21, align 8
  br label %73

51:                                               ; preds = %18
  %52 = sub i32 %22, %24
  store i32 %52, ptr %21, align 8
  %53 = sub i32 %26, %24
  store i32 %53, ptr %25, align 4
  %54 = load i16, ptr %0, align 2
  %55 = lshr i16 %54, 5
  %56 = sub i16 %54, %55
  store i16 %56, ptr %0, align 2
  %57 = load i32, ptr %21, align 8
  %58 = icmp ult i32 %57, 16777216
  br i1 %58, label %59, label %73

59:                                               ; preds = %51
  %60 = load i32, ptr %25, align 4
  %61 = shl i32 %60, 8
  %62 = load ptr, ptr %1, align 8
  %63 = getelementptr inbounds i8, ptr %1, i64 8
  %64 = load ptr, ptr %63, align 8
  %.not.i55 = icmp ult ptr %62, %64
  br i1 %.not.i55, label %67, label %65

65:                                               ; preds = %59
  %66 = getelementptr inbounds i8, ptr %1, i64 24
  store i32 1, ptr %66, align 8
  br label %get_byte.exit57

67:                                               ; preds = %59
  %68 = load i8, ptr %62, align 1
  %69 = zext i8 %68 to i32
  %70 = getelementptr inbounds i8, ptr %62, i64 1
  store ptr %70, ptr %1, align 8
  br label %get_byte.exit57

get_byte.exit57:                                  ; preds = %65, %67
  %.0.i56 = phi i32 [ 255, %65 ], [ %69, %67 ]
  %71 = or disjoint i32 %.0.i56, %61
  store i32 %71, ptr %25, align 4
  %72 = shl nuw i32 %57, 8
  store i32 %72, ptr %21, align 8
  br label %73

73:                                               ; preds = %51, %get_byte.exit57, %28, %get_byte.exit, %16
  %.0 = phi i32 [ 255, %16 ], [ 0, %get_byte.exit ], [ 0, %28 ], [ 1, %get_byte.exit57 ], [ 1, %51 ]
  ret i32 %.0
}